; Function Attrs: mustprogress uwtable
define void @_ZN24InterfaceSortFilterModel18toggleFilterHiddenEv(ptr noundef nonnull align 8 dereferenceable(72) %0) local_unnamed_addr #0 align 2 {
  %2 = getelementptr inbounds i8, ptr %0, i64 16
  %3 = load i8, ptr %2, align 8
  %4 = and i8 %3, 1
  %5 = xor i8 %4, 1
  store i8 %5, ptr %2, align 8
  %6 = getelementptr inbounds i8, ptr %0, i64 19
  %7 = load i8, ptr %6, align 1
  %8 = and i8 %7, 1
  %.not = icmp eq i8 %8, 0
  br i1 %.not, label %11, label %9

9:                                                ; preds = %1
  %10 = zext nneg i8 %4 to i32
  store i32 %10, ptr getelementptr inbounds (%struct._e_prefs, ptr @prefs, i64 0, i32 50), align 8
  tail call void @prefs_main_write()
  br label %11

11:                                               ; preds = %9, %1
  tail call void @_ZN21QSortFilterProxyModel16invalidateFilterEv(ptr noundef nonnull align 8 dereferenceable(16) %0)
  tail call void @_ZN21QSortFilterProxyModel10invalidateEv(ptr noundef nonnull align 8 dereferenceable(16) %0)
  ret void
}